target datalayout = "e-m:e-p270:32:32-p271:32:32-p272:64:64-i64:64-i128:128-f80:128-n8:16:32:64-S128"
target triple = "x86_64-pc-linux-gnu"

%struct.cpool = type { %struct.Curl_hash, i64, i64, i64, %struct.curltime, %struct.Curl_llist, ptr, ptr, ptr, ptr, i8 }
%struct.Curl_hash = type { ptr, ptr, ptr, ptr, i64, i64 }
%struct.curltime = type { i64, i32 }
%struct.Curl_llist = type { ptr, ptr, ptr, i64 }

; Function Attrs: nounwind uwtable
define internal void @cpool_perform(ptr noundef %0) #0 {
  %2 = alloca ptr, align 8
  %3 = alloca ptr, align 8
  %4 = alloca ptr, align 8
  %5 = alloca ptr, align 8
  %6 = alloca ptr, align 8
  %7 = alloca ptr, align 8
  %8 = alloca %struct.curltime, align 8
  %9 = alloca i64, align 8
  %10 = alloca i64, align 8
  %11 = alloca i8, align 1
  %12 = alloca i32, align 4
  %13 = alloca %struct.curltime, align 8
  store ptr %0, ptr %2, align 8, !tbaa !3
  call void @llvm.lifetime.start.p0(i64 8, ptr %3) #7
  %14 = load ptr, ptr %2, align 8, !tbaa !3
  %15 = getelementptr inbounds nuw %struct.cpool, ptr %14, i32 0, i32 6
  %16 = load ptr, ptr %15, align 8, !tbaa !15
  store ptr %16, ptr %3, align 8, !tbaa !99
  call void @llvm.lifetime.start.p0(i64 8, ptr %4) #7
  %17 = load ptr, ptr %2, align 8, !tbaa !3
  %18 = getelementptr inbounds nuw %struct.cpool, ptr %17, i32 0, i32 5
  %19 = call ptr @Curl_llist_head(ptr noundef %18)
  store ptr %19, ptr %4, align 8, !tbaa !125
  call void @llvm.lifetime.start.p0(i64 8, ptr %5) #7
  call void @llvm.lifetime.start.p0(i64 8, ptr %6) #7
  call void @llvm.lifetime.start.p0(i64 8, ptr %7) #7
  store ptr null, ptr %7, align 8, !tbaa !165
  call void @llvm.lifetime.start.p0(i64 16, ptr %8) #7
  call void @llvm.lifetime.start.p0(i64 8, ptr %9) #7
  store i64 0, ptr %9, align 8, !tbaa !13
  call void @llvm.lifetime.start.p0(i64 8, ptr %10) #7
  call void @llvm.lifetime.start.p0(i64 1, ptr %11) #7
  %20 = load ptr, ptr %4, align 8, !tbaa !125
  %21 = icmp ne ptr %20, null
  br i1 %21, label %23, label %22

22:                                               ; preds = %1
  store i32 1, ptr %12, align 4
  br label %83

23:                                               ; preds = %1
  br label %24

24:                                               ; preds = %23
  br label %25

25:                                               ; preds = %24
  br label %26

26:                                               ; preds = %25
  br label %27

27:                                               ; preds = %26
  br label %28

28:                                               ; preds = %27
  br label %29

29:                                               ; preds = %28
  br label %30

30:                                               ; preds = %74, %29
  %31 = load ptr, ptr %4, align 8, !tbaa !125
  %32 = icmp ne ptr %31, null
  br i1 %32, label %33, label %76

33:                                               ; preds = %30
  %34 = load ptr, ptr %4, align 8, !tbaa !125
  %35 = call ptr @Curl_node_next(ptr noundef %34)
  store ptr %35, ptr %5, align 8, !tbaa !125
  %36 = load ptr, ptr %4, align 8, !tbaa !125
  %37 = call ptr @Curl_node_elem(ptr noundef %36)
  store ptr %37, ptr %6, align 8, !tbaa !95
  %38 = load ptr, ptr %3, align 8, !tbaa !99
  %39 = load ptr, ptr %6, align 8, !tbaa !95
  call void @Curl_attach_connection(ptr noundef %38, ptr noundef %39)
  %40 = load ptr, ptr %3, align 8, !tbaa !99
  %41 = load ptr, ptr %6, align 8, !tbaa !95
  call void @cpool_run_conn_shutdown(ptr noundef %40, ptr noundef %41, ptr noundef %11)
  br label %42

42:                                               ; preds = %33
  br label %43

43:                                               ; preds = %42
  br label %44

44:                                               ; preds = %43
  %45 = load ptr, ptr %3, align 8, !tbaa !99
  call void @Curl_detach_connection(ptr noundef %45)
  %46 = load i8, ptr %11, align 1, !tbaa !129, !range !130, !noundef !131
  %47 = trunc i8 %46 to i1
  br i1 %47, label %48, label %52

48:                                               ; preds = %44
  %49 = load ptr, ptr %4, align 8, !tbaa !125
  call void @Curl_node_remove(ptr noundef %49)
  %50 = load ptr, ptr %2, align 8, !tbaa !3
  %51 = load ptr, ptr %6, align 8, !tbaa !95
  call void @cpool_close_and_destroy(ptr noundef %50, ptr noundef %51, ptr noundef null, i1 noundef zeroext false)
  br label %74

52:                                               ; preds = %44
  %53 = load ptr, ptr %7, align 8, !tbaa !165
  %54 = icmp ne ptr %53, null
  br i1 %54, label %61, label %55

55:                                               ; preds = %52
  call void @llvm.lifetime.start.p0(i64 16, ptr %13) #7
  %56 = call { i64, i32 } @Curl_now()
  %57 = getelementptr inbounds nuw { i64, i32 }, ptr %13, i32 0, i32 0
  %58 = extractvalue { i64, i32 } %56, 0
  store i64 %58, ptr %57, align 8
  %59 = getelementptr inbounds nuw { i64, i32 }, ptr %13, i32 0, i32 1
  %60 = extractvalue { i64, i32 } %56, 1
  store i32 %60, ptr %59, align 8
  call void @llvm.memcpy.p0.p0.i64(ptr align 8 %8, ptr align 8 %13, i64 16, i1 false), !tbaa.struct !127
  call void @llvm.lifetime.end.p0(i64 16, ptr %13) #7
  store ptr %8, ptr %7, align 8, !tbaa !165
  br label %61

61:                                               ; preds = %55, %52
  %62 = load ptr, ptr %6, align 8, !tbaa !95
  %63 = load ptr, ptr %7, align 8, !tbaa !165
  %64 = call i64 @Curl_conn_shutdown_timeleft(ptr noundef %62, ptr noundef %63)
  store i64 %64, ptr %10, align 8, !tbaa !13
  %65 = load i64, ptr %10, align 8, !tbaa !13
  %66 = icmp ne i64 %65, 0
  br i1 %66, label %67, label %73

67:                                               ; preds = %61
  %68 = load i64, ptr %10, align 8, !tbaa !13
  %69 = load i64, ptr %9, align 8, !tbaa !13
  %70 = icmp slt i64 %68, %69
  br i1 %70, label %71, label %73

71:                                               ; preds = %67
  %72 = load i64, ptr %10, align 8, !tbaa !13
  store i64 %72, ptr %9, align 8, !tbaa !13
  br label %73

73:                                               ; preds = %71, %67, %61
  br label %74

74:                                               ; preds = %73, %48
  %75 = load ptr, ptr %5, align 8, !tbaa !125
  store ptr %75, ptr %4, align 8, !tbaa !125
  br label %30, !llvm.loop !167

76:                                               ; preds = %30
  %77 = load i64, ptr %9, align 8, !tbaa !13
  %78 = icmp ne i64 %77, 0
  br i1 %78, label %79, label %82

79:                                               ; preds = %76
  %80 = load ptr, ptr %3, align 8, !tbaa !99
  %81 = load i64, ptr %9, align 8, !tbaa !13
  call void @Curl_expire(ptr noundef %80, i64 noundef %81, i32 noundef 8)
  br label %82

82:                                               ; preds = %79, %76
  store i32 0, ptr %12, align 4
  br label %83

83:                                               ; preds = %82, %22
  call void @llvm.lifetime.end.p0(i64 1, ptr %11) #7
  call void @llvm.lifetime.end.p0(i64 8, ptr %10) #7
  call void @llvm.lifetime.end.p0(i64 8, ptr %9) #7
  call void @llvm.lifetime.end.p0(i64 16, ptr %8) #7
  call void @llvm.lifetime.end.p0(i64 8, ptr %7) #7
  call void @llvm.lifetime.end.p0(i64 8, ptr %6) #7
  call void @llvm.lifetime.end.p0(i64 8, ptr %5) #7
  call void @llvm.lifetime.end.p0(i64 8, ptr %4) #7
  call void @llvm.lifetime.end.p0(i64 8, ptr %3) #7
  %84 = load i32, ptr %12, align 4
  switch i32 %84, label %86 [
    i32 0, label %85
    i32 1, label %85
  ]

85:                                               ; preds = %83, %83
  ret void

86:                                               ; preds = %83
  unreachable
}