; Function Attrs: nounwind uwtable
define internal fastcc void @cpool_perform(ptr noundef %0) unnamed_addr #0 {
  %2 = alloca %struct.curltime, align 8
  %3 = alloca i8, align 1
  %4 = getelementptr inbounds nuw i8, ptr %0, i64 120
  %5 = load ptr, ptr %4, align 8, !tbaa !3
  %6 = getelementptr inbounds nuw i8, ptr %0, i64 88
  %7 = tail call ptr @Curl_llist_head(ptr noundef nonnull %6) #8
  call void @llvm.lifetime.start.p0(i64 16, ptr nonnull %2) #8
  call void @llvm.lifetime.start.p0(i64 1, ptr nonnull %3) #8
  %.not = icmp eq ptr %7, null
  br i1 %.not, label %25, label %.preheader

.preheader:                                       ; preds = %1
  %.sroa.4.0..sroa_idx = getelementptr inbounds nuw i8, ptr %2, i64 8
  br label %8

8:                                                ; preds = %.preheader, %22
  %.035 = phi ptr [ %7, %.preheader ], [ %9, %22 ]
  %.02434 = phi ptr [ null, %.preheader ], [ %.1, %22 ]
  %.02533 = phi i64 [ 0, %.preheader ], [ %.126, %22 ]
  %9 = call ptr @Curl_node_next(ptr noundef nonnull %.035) #8
  %10 = call ptr @Curl_node_elem(ptr noundef nonnull %.035) #8
  call void @Curl_attach_connection(ptr noundef %5, ptr noundef %10) #8
  call fastcc void @cpool_run_conn_shutdown(ptr noundef %5, ptr noundef %10, ptr noundef %3)
  call void @Curl_detach_connection(ptr noundef %5) #8
  %11 = load i8, ptr %3, align 1, !tbaa !145, !range !110, !noundef !111
  %12 = trunc nuw i8 %11 to i1
  br i1 %12, label %13, label %14

13:                                               ; preds = %8
  call void @Curl_node_remove(ptr noundef nonnull %.035) #8
  call fastcc void @cpool_close_and_destroy(ptr noundef %0, ptr noundef %10, ptr noundef null, i1 noundef zeroext false)
  br label %22

14:                                               ; preds = %8
  %.not31 = icmp eq ptr %.02434, null
  br i1 %.not31, label %15, label %19

15:                                               ; preds = %14
  %16 = call { i64, i32 } @Curl_now() #8
  %17 = extractvalue { i64, i32 } %16, 0
  %18 = extractvalue { i64, i32 } %16, 1
  store i64 %17, ptr %2, align 8, !tbaa !144
  store i32 %18, ptr %.sroa.4.0..sroa_idx, align 8, !tbaa !114
  br label %19

19:                                               ; preds = %15, %14
  %.2 = phi ptr [ %.02434, %14 ], [ %2, %15 ]
  %20 = call i64 @Curl_conn_shutdown_timeleft(ptr noundef %10, ptr noundef nonnull %.2) #8
  %.not32.not = icmp eq i64 %20, 0
  %21 = call i64 @llvm.smin.i64(i64 %20, i64 %.02533)
  %spec.select = select i1 %.not32.not, i64 %.02533, i64 %21
  br label %22

22:                                               ; preds = %19, %13
  %.126 = phi i64 [ %.02533, %13 ], [ %spec.select, %19 ]
  %.1 = phi ptr [ %.02434, %13 ], [ %.2, %19 ]
  %.not29 = icmp eq ptr %9, null
  br i1 %.not29, label %23, label %8, !llvm.loop !158

23:                                               ; preds = %22
  %.not30 = icmp eq i64 %.126, 0
  br i1 %.not30, label %25, label %24

24:                                               ; preds = %23
  call void @Curl_expire(ptr noundef %5, i64 noundef %.126, i32 noundef 8) #8
  br label %25

25:                                               ; preds = %23, %24, %1
  call void @llvm.lifetime.end.p0(i64 1, ptr nonnull %3) #8
  call void @llvm.lifetime.end.p0(i64 16, ptr nonnull %2) #8
  ret void
}